; Function Attrs: mustprogress nofree norecurse nosync nounwind willreturn memory(readwrite, inaccessiblemem: none) uwtable
define internal noundef i32 @builtins_dict_watcher(i32 %0, ptr readnone captures(none) %1, ptr readnone captures(none) %2, ptr readnone captures(none) %3) #18 {
  %5 = tail call align 8 ptr @llvm.threadlocal.address.p0(ptr align 8 @_Py_tss_tstate)
  %6 = load ptr, ptr %5, align 8, !tbaa !212
  %7 = getelementptr inbounds nuw i8, ptr %6, i64 16
  %8 = load ptr, ptr %7, align 8, !tbaa !228
  %9 = getelementptr inbounds nuw i8, ptr %8, i64 222995
  %10 = load i8, ptr %9, align 1, !tbaa !339
  %.not = icmp eq i8 %10, -1
  br i1 %.not, label %13, label %11

11:                                               ; preds = %4
  %12 = add nuw i8 %10, 1
  store i8 %12, ptr %9, align 1, !tbaa !339
  br label %13

13:                                               ; preds = %11, %4
  ret i32 0
}